libwaitzar.so.1 libwaitzar1 #MINVER#
* Build-Depends-Package: libwaitzar-dev
 _ZN7waitzar11WordBuilder10typeLetterEc@libwaitzar1 1.0.0
 _ZN7waitzar11WordBuilder12getLastErrorEv@libwaitzar1 1.0.0
 _ZN7waitzar11WordBuilder13getWordStringEj@libwaitzar1 1.0.0
 _ZN7waitzar11WordBuilder13insertTrigramEPti@libwaitzar1 1.0.0
 _ZN7waitzar11WordBuilder14getParenStringEv@libwaitzar1 1.0.0
 _ZN7waitzar11WordBuilder15addRomanizationEPwPc@libwaitzar1 1.0.0
 _ZN7waitzar11WordBuilder15addRomanizationEPwPcb@libwaitzar1 1.0.0
 _ZN7waitzar11WordBuilder16getPossibleCharsEv@libwaitzar1 1.0.0
 _ZN7waitzar11WordBuilder16getPossibleWordsEv@libwaitzar1 1.0.0
 _ZN7waitzar11WordBuilder16getStopCharacterEb@libwaitzar1 1.0.0
 _ZN7waitzar11WordBuilder17getCurrSelectedIDEv@libwaitzar1 1.0.0
 _ZN7waitzar11WordBuilder17getOutputEncodingEv@libwaitzar1 1.0.0
 _ZN7waitzar11WordBuilder17getWordKeyStrokesEj@libwaitzar1 1.0.0
 _ZN7waitzar11WordBuilder17getWordKeyStrokesEjj@libwaitzar1 1.0.0
 _ZN7waitzar11WordBuilder17setOutputEncodingEj@libwaitzar1 1.0.0
 _ZN7waitzar11WordBuilder5resetEb@libwaitzar1 1.0.0
 _ZN7waitzar11WordBuilder9backspaceEv@libwaitzar1 1.0.0
 _ZN7waitzar11WordBuilder9moveRightEi@libwaitzar1 1.0.0
 _ZN7waitzar11WordBuilder9typeSpaceEi@libwaitzar1 1.0.0
 _ZN7waitzar11WordBuilderC1EPKcS2_@libwaitzar1 1.0.0
 _ZN7waitzar11WordBuilderC1EPKcSt6vectorISsSaISsEE@libwaitzar1 1.0.0
 _ZN7waitzar11WordBuilderC1EPPtiiPPjiiS4_ii@libwaitzar1 1.0.0
 _ZN7waitzar11WordBuilderC1EPcj@libwaitzar1 1.0.0
 _ZN7waitzar11WordBuilderC2EPKcS2_@libwaitzar1 1.0.0
 _ZN7waitzar11WordBuilderC2EPKcSt6vectorISsSaISsEE@libwaitzar1 1.0.0
 _ZN7waitzar11WordBuilderC2EPPtiiPPjiiS4_ii@libwaitzar1 1.0.0
 _ZN7waitzar11WordBuilderC2EPcj@libwaitzar1 1.0.0
 _ZN7waitzar11WordBuilderD1Ev@libwaitzar1 1.0.0
 _ZN7waitzar11WordBuilderD2Ev@libwaitzar1 1.0.0
 _ZN7waitzar11convertFontEPwS0_ii@libwaitzar1 1.0.0
 _ZN7waitzar12SentenceList10deleteNextEv@libwaitzar1 1.0.0
 _ZN7waitzar12SentenceList10deletePrevEPNS_11WordBuilderE@libwaitzar1 1.0.0
 _ZN7waitzar12SentenceList14getCursorIndexEv@libwaitzar1 1.0.0
 _ZN7waitzar12SentenceList15moveCursorRightEiPNS_11WordBuilderE@libwaitzar1 1.0.0
 _ZN7waitzar12SentenceList15moveCursorRightEibPNS_11WordBuilderE@libwaitzar1 1.0.0
 _ZN7waitzar12SentenceList3endEv@libwaitzar1 1.0.0
 _ZN7waitzar12SentenceList4sizeEv@libwaitzar1 1.0.0
 _ZN7waitzar12SentenceList5beginEv@libwaitzar1 1.0.0
 _ZN7waitzar12SentenceList5clearEv@libwaitzar1 1.0.0
 _ZN7waitzar12SentenceList6insertEi@libwaitzar1 1.0.0
 _ZN7waitzar12SentenceListC1Ev@libwaitzar1 1.0.0
 _ZN7waitzar12SentenceListC2Ev@libwaitzar1 1.0.0
 _ZN7waitzar12SentenceListD1Ev@libwaitzar1 1.0.0
 _ZN7waitzar12SentenceListD2Ev@libwaitzar1 1.0.0
 _ZN7waitzar2_fE@libwaitzar1 1.0.0
 _ZNSt6vectorISsSaISsEE13_M_insert_auxEN9__gnu_cxx17__normal_iteratorIPSsS1_EERKSs@libwaitzar1 1.0.0
 _ZNSt6vectorISsSaISsEED1Ev@libwaitzar1 1.0.0
 _ZNSt6vectorIcSaIcEE13_M_insert_auxEN9__gnu_cxx17__normal_iteratorIPcS1_EERKc@libwaitzar1 1.0.0
 _ZNSt6vectorIcSaIcEED1Ev@libwaitzar1 1.0.0
 _ZNSt6vectorIjSaIjEE13_M_insert_auxEN9__gnu_cxx17__normal_iteratorIPjS1_EERKj@libwaitzar1 1.0.0
 _ZNSt6vectorIjSaIjEED1Ev@libwaitzar1 1.0.0
 _ZNSt6vectorItSaItEE13_M_insert_auxEN9__gnu_cxx17__normal_iteratorIPtS1_EERKt@libwaitzar1 1.0.0
 _ZNSt6vectorItSaItEED1Ev@libwaitzar1 1.0.0


